target datalayout = "e-m:e-p270:32:32-p271:32:32-p272:64:64-i64:64-i128:128-f80:128-n8:16:32:64-S128"
target triple = "x86_64-pc-linux-gnu"

; Function Attrs: nounwind null_pointer_is_valid sspstrong uwtable
define internal zeroext i1 @check_ccwa(i32 noundef %0, i16 noundef zeroext %1) #10 {
  %3 = alloca i1, align 1
  %4 = alloca i32, align 4
  %5 = alloca i16, align 2
  store i32 %0, ptr %4, align 4
  store i16 %1, ptr %5, align 2
  %6 = load i32, ptr %4, align 4
  %7 = icmp eq i32 %6, 2
  br i1 %7, label %8, label %21

8:                                                ; preds = %2
  %9 = load i16, ptr %5, align 2
  %10 = zext i16 %9 to i32
  %11 = icmp eq i32 %10, 61
  br i1 %11, label %20, label %12

12:                                               ; preds = %8
  %13 = load i16, ptr %5, align 2
  %14 = zext i16 %13 to i32
  %15 = icmp eq i32 %14, 63
  br i1 %15, label %20, label %16

16:                                               ; preds = %12
  %17 = load i16, ptr %5, align 2
  %18 = zext i16 %17 to i32
  %19 = icmp eq i32 %18, 15679
  br i1 %19, label %20, label %21

20:                                               ; preds = %16, %12, %8
  store i1 true, ptr %3, align 1
  br label %30

21:                                               ; preds = %16, %2
  %22 = load i32, ptr %4, align 4
  %23 = icmp eq i32 %22, 1
  br i1 %23, label %24, label %29

24:                                               ; preds = %21
  %25 = load i16, ptr %5, align 2
  %26 = zext i16 %25 to i32
  %27 = icmp eq i32 %26, 58
  br i1 %27, label %28, label %29

28:                                               ; preds = %24
  store i1 true, ptr %3, align 1
  br label %30

29:                                               ; preds = %24, %21
  store i1 false, ptr %3, align 1
  br label %30

30:                                               ; preds = %29, %28, %20
  %31 = load i1, ptr %3, align 1
  ret i1 %31
}